target datalayout = "e-m:e-p270:32:32-p271:32:32-p272:64:64-i64:64-i128:128-f80:128-n8:16:32:64-S128"
target triple = "x86_64-pc-linux-gnu"

%struct.quicklist = type { ptr, ptr, i64, i64, i64, [0 x %struct.quicklistBookmark] }
%struct.quicklistBookmark = type { ptr, ptr }
%struct.quicklistIter = type { ptr, ptr, ptr, i64, i32 }

; Function Attrs: nounwind uwtable
define dso_local ptr @quicklistGetIterator(ptr noundef %0, i32 noundef %1) #0 {
  %3 = alloca ptr, align 8
  %4 = alloca i32, align 4
  %5 = alloca ptr, align 8
  store ptr %0, ptr %3, align 8, !tbaa !9
  store i32 %1, ptr %4, align 4, !tbaa !14
  call void @llvm.lifetime.start.p0(i64 8, ptr %5) #10
  %6 = call noalias ptr @zmalloc(i64 noundef 40) #11
  store ptr %6, ptr %5, align 8, !tbaa !42
  %7 = load i32, ptr %4, align 4, !tbaa !14
  %8 = icmp eq i32 %7, 0
  br i1 %8, label %9, label %17

9:                                                ; preds = %2
  %10 = load ptr, ptr %3, align 8, !tbaa !9
  %11 = getelementptr inbounds nuw %struct.quicklist, ptr %10, i32 0, i32 0
  %12 = load ptr, ptr %11, align 8, !tbaa !12
  %13 = load ptr, ptr %5, align 8, !tbaa !42
  %14 = getelementptr inbounds nuw %struct.quicklistIter, ptr %13, i32 0, i32 1
  store ptr %12, ptr %14, align 8, !tbaa !53
  %15 = load ptr, ptr %5, align 8, !tbaa !42
  %16 = getelementptr inbounds nuw %struct.quicklistIter, ptr %15, i32 0, i32 3
  store i64 0, ptr %16, align 8, !tbaa !54
  br label %29

17:                                               ; preds = %2
  %18 = load i32, ptr %4, align 4, !tbaa !14
  %19 = icmp eq i32 %18, 1
  br i1 %19, label %20, label %28

20:                                               ; preds = %17
  %21 = load ptr, ptr %3, align 8, !tbaa !9
  %22 = getelementptr inbounds nuw %struct.quicklist, ptr %21, i32 0, i32 1
  %23 = load ptr, ptr %22, align 8, !tbaa !12
  %24 = load ptr, ptr %5, align 8, !tbaa !42
  %25 = getelementptr inbounds nuw %struct.quicklistIter, ptr %24, i32 0, i32 1
  store ptr %23, ptr %25, align 8, !tbaa !53
  %26 = load ptr, ptr %5, align 8, !tbaa !42
  %27 = getelementptr inbounds nuw %struct.quicklistIter, ptr %26, i32 0, i32 3
  store i64 -1, ptr %27, align 8, !tbaa !54
  br label %28

28:                                               ; preds = %20, %17
  br label %29

29:                                               ; preds = %28, %9
  %30 = load i32, ptr %4, align 4, !tbaa !14
  %31 = load ptr, ptr %5, align 8, !tbaa !42
  %32 = getelementptr inbounds nuw %struct.quicklistIter, ptr %31, i32 0, i32 4
  store i32 %30, ptr %32, align 8, !tbaa !52
  %33 = load ptr, ptr %3, align 8, !tbaa !9
  %34 = load ptr, ptr %5, align 8, !tbaa !42
  %35 = getelementptr inbounds nuw %struct.quicklistIter, ptr %34, i32 0, i32 0
  store ptr %33, ptr %35, align 8, !tbaa !55
  %36 = load ptr, ptr %5, align 8, !tbaa !42
  %37 = getelementptr inbounds nuw %struct.quicklistIter, ptr %36, i32 0, i32 2
  store ptr null, ptr %37, align 8, !tbaa !50
  %38 = load ptr, ptr %5, align 8, !tbaa !42
  call void @llvm.lifetime.end.p0(i64 8, ptr %5) #10
  ret ptr %38
}