; Function Attrs: nounwind uwtable
define dso_local noalias noundef ptr @quicklistGetIterator(ptr noundef %0, i32 noundef %1) local_unnamed_addr #1 {
  %3 = tail call noalias dereferenceable_or_null(40) ptr @zmalloc(i64 noundef 40) #22
  switch i32 %1, label %8 [
    i32 0, label %.sink.split
    i32 1, label %4
  ]

4:                                                ; preds = %2
  %5 = getelementptr inbounds nuw i8, ptr %0, i64 8
  br label %.sink.split

.sink.split:                                      ; preds = %2, %4
  %.sink14.in = phi ptr [ %5, %4 ], [ %0, %2 ]
  %.sink = phi i64 [ -1, %4 ], [ 0, %2 ]
  %.sink14 = load ptr, ptr %.sink14.in, align 8, !tbaa !16
  %6 = getelementptr inbounds nuw i8, ptr %3, i64 8
  store ptr %.sink14, ptr %6, align 8, !tbaa !41
  %7 = getelementptr inbounds nuw i8, ptr %3, i64 24
  store i64 %.sink, ptr %7, align 8, !tbaa !42
  br label %8

8:                                                ; preds = %.sink.split, %2
  %9 = getelementptr inbounds nuw i8, ptr %3, i64 32
  store i32 %1, ptr %9, align 8, !tbaa !40
  store ptr %0, ptr %3, align 8, !tbaa !43
  %10 = getelementptr inbounds nuw i8, ptr %3, i64 16
  store ptr null, ptr %10, align 8, !tbaa !38
  ret ptr %3
}